target datalayout = "e-m:e-p270:32:32-p271:32:32-p272:64:64-i64:64-i128:128-f80:128-n8:16:32:64-S128"
target triple = "x86_64-pc-linux-gnu"

%struct.Smain = type { ptr, i32, i32 }

@empty_argv = internal global [2 x ptr] zeroinitializer, align 16
@progname = internal global ptr @.str.1, align 8
@.str = private unnamed_addr constant [39 x i8] c"cannot create state: not enough memory\00", align 1
@smain = internal global %struct.Smain zeroinitializer, align 8
@.str.36 = private unnamed_addr constant [31 x i8] c"(error object is not a string)\00", align 1

; Function Attrs: nounwind uwtable
define internal i32 @report(ptr noundef %0, i32 noundef %1) #0 {
  %3 = alloca ptr, align 8
  %4 = alloca i32, align 4
  %5 = alloca ptr, align 8
  store ptr %0, ptr %3, align 8, !tbaa !14
  store i32 %1, ptr %4, align 4, !tbaa !4
  %6 = load i32, ptr %4, align 4, !tbaa !4
  %7 = icmp ne i32 %6, 0
  br i1 %7, label %8, label %21

8:                                                ; preds = %2
  %9 = load ptr, ptr %3, align 8, !tbaa !14
  %10 = call i32 @lua_type(ptr noundef %9, i32 noundef -1)
  %11 = icmp eq i32 %10, 0
  br i1 %11, label %21, label %12

12:                                               ; preds = %8
  call void @llvm.lifetime.start.p0(i64 8, ptr %5) #5
  %13 = load ptr, ptr %3, align 8, !tbaa !14
  %14 = call ptr @lua_tolstring(ptr noundef %13, i32 noundef -1, ptr noundef null)
  store ptr %14, ptr %5, align 8, !tbaa !11
  %15 = load ptr, ptr %5, align 8, !tbaa !11
  %16 = icmp eq ptr %15, null
  br i1 %16, label %17, label %18

17:                                               ; preds = %12
  store ptr @.str.36, ptr %5, align 8, !tbaa !11
  br label %18

18:                                               ; preds = %17, %12
  %19 = load ptr, ptr %5, align 8, !tbaa !11
  call void @l_message(ptr noundef %19)
  %20 = load ptr, ptr %3, align 8, !tbaa !14
  call void @lua_settop(ptr noundef %20, i32 noundef -2)
  call void @llvm.lifetime.end.p0(i64 8, ptr %5) #5
  br label %21

21:                                               ; preds = %18, %8, %2
  %22 = load i32, ptr %4, align 4, !tbaa !4
  ret i32 %22
}

; Function Attrs: nounwind uwtable
define dso_local i32 @main(i32 noundef %0, ptr noundef %1) #0 {
  %3 = alloca i32, align 4
  %4 = alloca i32, align 4
  %5 = alloca ptr, align 8
  %6 = alloca i32, align 4
  %7 = alloca ptr, align 8
  %8 = alloca i32, align 4
  store i32 0, ptr %3, align 4
  store i32 %0, ptr %4, align 4, !tbaa !4
  store ptr %1, ptr %5, align 8, !tbaa !8
  call void @llvm.lifetime.start.p0(i64 4, ptr %6) #5
  call void @llvm.lifetime.start.p0(i64 8, ptr %7) #5
  %9 = load ptr, ptr %5, align 8, !tbaa !8
  %10 = getelementptr inbounds ptr, ptr %9, i64 0
  %11 = load ptr, ptr %10, align 8, !tbaa !11
  %12 = icmp ne ptr %11, null
  br i1 %12, label %14, label %13

13:                                               ; preds = %2
  store ptr @empty_argv, ptr %5, align 8, !tbaa !8
  br label %26

14:                                               ; preds = %2
  %15 = load ptr, ptr %5, align 8, !tbaa !8
  %16 = getelementptr inbounds ptr, ptr %15, i64 0
  %17 = load ptr, ptr %16, align 8, !tbaa !11
  %18 = getelementptr inbounds i8, ptr %17, i64 0
  %19 = load i8, ptr %18, align 1, !tbaa !13
  %20 = icmp ne i8 %19, 0
  br i1 %20, label %21, label %25

21:                                               ; preds = %14
  %22 = load ptr, ptr %5, align 8, !tbaa !8
  %23 = getelementptr inbounds ptr, ptr %22, i64 0
  %24 = load ptr, ptr %23, align 8, !tbaa !11
  store ptr %24, ptr @progname, align 8, !tbaa !11
  br label %25

25:                                               ; preds = %21, %14
  br label %26

26:                                               ; preds = %25, %13
  %27 = call ptr @luaL_newstate()
  store ptr %27, ptr %7, align 8, !tbaa !14
  %28 = load ptr, ptr %7, align 8, !tbaa !14
  %29 = icmp eq ptr %28, null
  br i1 %29, label %30, label %31

30:                                               ; preds = %26
  call void @l_message(ptr noundef @.str)
  store i32 1, ptr %3, align 4
  store i32 1, ptr %8, align 4
  br label %48

31:                                               ; preds = %26
  %32 = load i32, ptr %4, align 4, !tbaa !4
  store i32 %32, ptr getelementptr inbounds nuw (%struct.Smain, ptr @smain, i32 0, i32 1), align 8, !tbaa !16
  %33 = load ptr, ptr %5, align 8, !tbaa !8
  store ptr %33, ptr @smain, align 8, !tbaa !18
  %34 = load ptr, ptr %7, align 8, !tbaa !14
  %35 = call i32 @lua_cpcall(ptr noundef %34, ptr noundef @pmain, ptr noundef null)
  store i32 %35, ptr %6, align 4, !tbaa !4
  %36 = load ptr, ptr %7, align 8, !tbaa !14
  %37 = load i32, ptr %6, align 4, !tbaa !4
  %38 = call i32 @report(ptr noundef %36, i32 noundef %37)
  %39 = load ptr, ptr %7, align 8, !tbaa !14
  call void @lua_close(ptr noundef %39)
  %40 = load i32, ptr %6, align 4, !tbaa !4
  %41 = icmp ne i32 %40, 0
  br i1 %41, label %45, label %42

42:                                               ; preds = %31
  %43 = load i32, ptr getelementptr inbounds nuw (%struct.Smain, ptr @smain, i32 0, i32 2), align 4, !tbaa !19
  %44 = icmp sgt i32 %43, 0
  br label %45

45:                                               ; preds = %42, %31
  %46 = phi i1 [ true, %31 ], [ %44, %42 ]
  %47 = select i1 %46, i32 1, i32 0
  store i32 %47, ptr %3, align 4
  store i32 1, ptr %8, align 4
  br label %48

48:                                               ; preds = %45, %30
  call void @llvm.lifetime.end.p0(i64 8, ptr %7) #5
  call void @llvm.lifetime.end.p0(i64 4, ptr %6) #5
  %49 = load i32, ptr %3, align 4
  ret i32 %49
}