; Function Attrs: nounwind uwtable
define dso_local range(i32 0, 2) i32 @main(i32 noundef %0, ptr noundef %1) local_unnamed_addr #0 {
  %3 = load ptr, ptr %1, align 8, !tbaa !4
  %.not = icmp eq ptr %3, null
  br i1 %.not, label %7, label %4

4:                                                ; preds = %2
  %5 = load i8, ptr %3, align 1, !tbaa !9
  %.not14 = icmp eq i8 %5, 0
  br i1 %.not14, label %7, label %6

6:                                                ; preds = %4
  store ptr %3, ptr @progname, align 8, !tbaa !4
  br label %7

7:                                                ; preds = %2, %4, %6
  %.011 = phi ptr [ %1, %6 ], [ %1, %4 ], [ @empty_argv, %2 ]
  %8 = tail call ptr @luaL_newstate() #9
  %9 = icmp eq ptr %8, null
  br i1 %9, label %10, label %11

10:                                               ; preds = %7
  tail call fastcc void @l_message(ptr noundef nonnull @.str)
  br label %24

11:                                               ; preds = %7
  store i32 %0, ptr @smain.1, align 8, !tbaa !10
  store ptr %.011, ptr @smain.0, align 8, !tbaa !14
  %12 = tail call i32 @lua_cpcall(ptr noundef nonnull %8, ptr noundef nonnull @pmain, ptr noundef null) #9
  %.not.i = icmp eq i32 %12, 0
  br i1 %.not.i, label %report.exit, label %13

13:                                               ; preds = %11
  %14 = tail call i32 @lua_type(ptr noundef nonnull %8, i32 noundef -1) #9
  %15 = icmp eq i32 %14, 0
  br i1 %15, label %report.exit, label %16

16:                                               ; preds = %13
  %17 = tail call ptr @lua_tolstring(ptr noundef nonnull %8, i32 noundef -1, ptr noundef null) #9
  %18 = icmp eq ptr %17, null
  %spec.store.select.i = select i1 %18, ptr @.str.36, ptr %17
  tail call fastcc void @l_message(ptr noundef nonnull %spec.store.select.i)
  tail call void @lua_settop(ptr noundef nonnull %8, i32 noundef -2) #9
  br label %report.exit

report.exit:                                      ; preds = %11, %13, %16
  tail call void @lua_close(ptr noundef nonnull %8) #9
  %19 = icmp ne i32 %12, 0
  %20 = load i32, ptr @smain.2, align 4
  %21 = icmp sgt i32 %20, 0
  %22 = select i1 %19, i1 true, i1 %21
  %23 = zext i1 %22 to i32
  br label %24

24:                                               ; preds = %report.exit, %10
  %.0 = phi i32 [ 1, %10 ], [ %23, %report.exit ]
  ret i32 %.0
}